Certificate:
    Data:
        Version: 3 (0x2)
        Serial Number: 1 (0x1)
        Signature Algorithm: sha256WithRSAEncryption
        Issuer: O=Coflnet, CN=Coflnet GmbH
        Validity
            Not Before: Oct 14 19:26:31 2024 GMT
            Not After : Apr  6 19:26:31 2030 GMT
        Subject: O=Coflnet, CN=true-relevance-targeting.com
        Subject Public Key Info:
            Public Key Algorithm: rsaEncryption
                Public-Key: (2048 bit)
                Modulus:
                    00:dc:83:73:45:6a:6e:0d:c4:2b:92:3f:8a:63:a0:
                    85:24:11:1b:1c:0b:81:bb:be:dc:10:c2:f7:39:f9:
                    c3:88:11:f6:e8:80:21:a5:f6:be:8f:f3:8a:a4:bf:
                    09:bb:de:fd:8c:21:78:45:ed:62:25:15:50:ac:a7:
                    ed:90:e6:e9:9c:58:eb:5e:6f:9a:f3:2f:7d:af:93:
                    5e:a0:f7:6f:c3:b2:91:b8:e1:5d:13:e8:59:2b:d5:
                    f4:bb:36:09:ec:1f:95:d6:55:74:70:c8:fd:18:96:
                    db:b1:d1:30:88:4b:1b:1b:3c:0a:dc:6b:d3:f9:a5:
                    11:b7:50:5f:94:62:85:1b:9a:c7:52:0c:8e:6d:28:
                    7f:99:37:ad:27:58:49:d0:30:08:66:61:b8:55:15:
                    3d:bb:d6:87:07:d5:75:6e:2d:6b:8c:f1:9f:fc:16:
                    67:9a:ad:d9:78:5b:0b:19:7d:6c:ad:01:50:63:ed:
                    1d:9a:cf:f3:08:cf:20:60:39:81:b4:3c:af:9f:2e:
                    f7:67:b5:23:3f:10:49:11:1a:ad:ce:95:64:20:6d:
                    0f:74:68:39:67:ca:4a:4a:de:57:7c:3e:61:83:73:
                    f6:06:77:c9:5d:7b:18:78:75:ba:20:b3:a4:2c:73:
                    f5:6b:fa:4a:46:02:57:60:8a:c5:82:38:ab:84:07:
                    cb:a5
                Exponent: 65537 (0x10001)
        X509v3 extensions:
            X509v3 Key Usage: critical
                Digital Signature, Key Encipherment
            X509v3 Extended Key Usage: 
                TLS Web Server Authentication, TLS Web Client Authentication
            X509v3 Subject Key Identifier: 
                FE:5E:17:F2:E9:FC:4F:EC:A5:C7:13:28:15:C6:D1:F2:23:07:5C:FC
            X509v3 Authority Key Identifier: 
                CD:25:DB:34:7C:A2:07:0F:A3:D1:C5:B9:C6:55:3E:15:D6:80:8F:9A
    Signature Algorithm: sha256WithRSAEncryption
    Signature Value:
        99:1f:b3:da:69:5b:d8:ed:c0:d7:0e:7f:e5:55:22:0c:62:96:
        24:7d:86:67:1a:61:dd:51:6a:0c:c6:44:75:33:34:92:de:57:
        82:9d:0c:b7:9a:5c:ee:67:dd:92:6b:ed:95:bb:84:c6:7c:5a:
        0b:92:dd:01:45:ca:c6:40:40:81:f7:56:b3:7f:b9:91:56:d9:
        9d:eb:56:2f:86:c8:6f:81:9a:97:cc:f5:e8:a4:51:8e:67:bf:
        e9:a8:b9:ac:b6:aa:e2:ce:c5:da:4d:88:4e:2e:5e:70:ad:58:
        16:9d:6e:5f:f4:e9:7d:18:af:97:35:31:a6:4f:41:dc:f0:d8:
        e2:69:f8:da:37:fd:e7:bb:af:cf:23:0f:00:35:3d:f3:9c:06:
        4d:ab:85:34:da:10:12:31:a4:bb:72:97:74:5f:65:d6:9e:b6:
        18:58:22:56:10:7a:96:af:c1:c9:d3:ce:ad:cb:be:63:c5:f0:
        78:c3:a8:21:2a:1f:69:3a:e9:ff:45:ad:41:6a:e2:d2:25:ad:
        1f:f5:3b:1f:e7:3e:80:fa:66:47:51:89:cb:6c:fa:8b:ee:00:
        07:2d:cc:e8:da:9e:c6:06:3f:6d:53:fb:b4:1f:8a:ea:ef:af:
        5d:a2:65:4f:d0:ee:b3:c6:ca:57:e7:e9:49:b2:18:ad:fc:f9:
        a3:73:69:88
-----BEGIN CERTIFICATE-----
MIIDTjCCAjagAwIBAgIBATANBgkqhkiG9w0BAQsFADApMRAwDgYDVQQKDAdDb2Zs
bmV0MRUwEwYDVQQDDAxDb2ZsbmV0IEdtYkgwHhcNMjQxMDE0MTkyNjMxWhcNMzAw
NDA2MTkyNjMxWjA5MRAwDgYDVQQKDAdDb2ZsbmV0MSUwIwYDVQQDDBx0cnVlLXJl
bGV2YW5jZS10YXJnZXRpbmcuY29tMIIBIjANBgkqhkiG9w0BAQEFAAOCAQ8AMIIB
CgKCAQEA3INzRWpuDcQrkj+KY6CFJBEbHAuBu77cEML3OfnDiBH26IAhpfa+j/OK
pL8Ju979jCF4Re1iJRVQrKftkObpnFjrXm+a8y99r5NeoPdvw7KRuOFdE+hZK9X0
uzYJ7B+V1lV0cMj9GJbbsdEwiEsbGzwK3GvT+aURt1BflGKFG5rHUgyObSh/mTet
J1hJ0DAIZmG4VRU9u9aHB9V1bi1rjPGf/BZnmq3ZeFsLGX1srQFQY+0dms/zCM8g
YDmBtDyvny73Z7UjPxBJERqtzpVkIG0PdGg5Z8pKSt5XfD5hg3P2BnfJXXsYeHW6
ILOkLHP1a/pKRgJXYIrFgjirhAfLpQIDAQABo3EwbzAOBgNVHQ8BAf8EBAMCBaAw
HQYDVR0lBBYwFAYIKwYBBQUHAwEGCCsGAQUFBwMCMB0GA1UdDgQWBBT+Xhfy6fxP
7KXHEygVxtHyIwdc/DAfBgNVHSMEGDAWgBTNJds0fKIHD6PRxbnGVT4V1oCPmjAN
BgkqhkiG9w0BAQsFAAOCAQEAmR+z2mlb2O3A1w5/5VUiDGKWJH2GZxph3VFqDMZE
dTM0kt5Xgp0Mt5pc7mfdkmvtlbuExnxaC5LdAUXKxkBAgfdWs3+5kVbZnetWL4bI
b4Gal8z16KRRjme/6ai5rLaq4s7F2k2ITi5ecK1YFp1uX/TpfRivlzUxpk9B3PDY
4mn42jf957uvzyMPADU985wGTauFNNoQEjGku3KXdF9l1p62GFgiVhB6lq/BydPO
rcu+Y8XweMOoISofaTrp/0WtQWri0iWtH/U7H+c+gPpmR1GJy2z6i+4ABy3M6Nqe
xgY/bVP7tB+K6u+vXaJlT9Dus8bKV+fpSbIYrfz5o3NpiA==
-----END CERTIFICATE-----
