Certificate:
    Data:
        Version: 3 (0x2)
        Serial Number: 2 (0x2)
        Signature Algorithm: sha256WithRSAEncryption
        Issuer: CN=Coflnet GmbH, O=Coflnet
        Validity
            Not Before: Oct 14 18:56:05 2025 GMT
            Not After : Apr  6 18:56:05 2031 GMT
        Subject: O=Coflnet, CN=sky.coflnet.com
        Subject Public Key Info:
            Public Key Algorithm: rsaEncryption
                Public-Key: (2048 bit)
                Modulus:
                    00:dd:86:78:75:0d:9e:ec:fc:89:a8:cc:6b:ad:3d:
                    21:78:95:0f:cb:01:e7:50:42:07:a7:32:62:e9:43:
                    be:4a:06:c9:af:2e:c6:9f:2a:ee:e5:36:e8:a8:ec:
                    92:c7:ce:24:a7:7a:fb:43:a7:2b:cc:29:45:3e:80:
                    12:49:9d:b6:3e:3f:5d:48:d4:77:32:4b:d1:9d:d4:
                    27:77:c8:1f:7d:4a:2f:d9:9d:72:61:6c:bd:21:56:
                    6e:76:3f:33:1f:e8:8d:97:4d:9a:93:2e:09:90:b3:
                    09:da:56:e2:2a:82:61:b4:2a:1d:23:48:a2:4d:35:
                    5e:4f:e2:77:81:11:31:b5:f6:8b:55:cc:e0:f1:be:
                    a4:12:07:cb:bb:76:a1:5f:fc:39:48:a2:94:db:68:
                    57:16:e1:fd:13:7b:39:ff:89:70:4c:04:0f:19:b1:
                    2c:6b:7e:68:df:d4:62:1e:aa:ba:44:fa:0f:bc:8c:
                    d3:bc:f3:68:f2:c6:19:af:2e:18:43:b1:95:5d:59:
                    b6:70:d2:4e:4f:15:cf:16:cf:7a:c7:be:94:2c:33:
                    88:bc:e3:46:89:93:94:58:ab:19:74:d7:65:1c:4a:
                    cc:5e:30:ab:62:66:0a:5f:75:b8:b4:bb:d7:52:05:
                    9f:c0:9f:5d:b6:03:4d:de:ec:9f:94:7e:42:7d:8f:
                    ad:25
                Exponent: 65537 (0x10001)
        X509v3 extensions:
            X509v3 Key Usage: critical
                Digital Signature, Key Encipherment
            X509v3 Extended Key Usage: 
                TLS Web Server Authentication, TLS Web Client Authentication
            X509v3 Subject Key Identifier: 
                1C:F8:6D:C2:03:A5:DB:34:F0:22:99:6F:51:92:14:C0:15:77:46:6E
            X509v3 Authority Key Identifier: 
                CD:25:DB:34:7C:A2:07:0F:A3:D1:C5:B9:C6:55:3E:15:D6:80:8F:9A
    Signature Algorithm: sha256WithRSAEncryption
    Signature Value:
        f0:3a:2c:4d:3d:bc:6d:9c:4c:8e:86:04:d7:15:c5:dd:3e:a4:
        da:33:dd:04:09:8c:0d:25:53:6e:fb:9a:29:fd:8d:21:5f:f1:
        41:de:e3:9c:69:f9:27:27:b5:5f:4e:4c:64:66:7f:59:f8:81:
        3e:30:ea:ff:ca:97:6e:41:35:57:5f:d6:a0:78:f8:0d:0c:68:
        03:64:80:83:33:d3:e5:36:f4:10:58:bb:41:76:2a:e8:8b:cc:
        4f:45:99:27:d0:1e:57:fc:25:6d:d5:14:de:12:43:35:1e:5d:
        c6:a9:16:95:ca:8c:5e:08:4a:ce:7a:cb:35:d0:64:06:14:de:
        c4:51:b0:cf:0b:3f:76:be:d5:ce:2e:1d:b1:c4:6b:59:d3:04:
        84:5a:bd:4c:5d:bb:70:c7:2e:05:24:42:08:3c:43:a1:24:e0:
        7e:8d:44:f7:6d:d1:2e:77:45:a7:40:4f:16:f3:7a:1d:7f:4b:
        97:d5:b0:b1:4d:6e:e6:a5:93:9c:2d:78:41:86:fb:e2:81:f8:
        07:39:f3:b6:ab:d8:b5:25:2e:ce:62:42:c7:f8:2d:d4:13:41:
        c1:37:19:05:8a:b1:b2:f2:2b:58:48:64:6c:9d:62:9d:63:b2:
        a3:f1:da:9d:d3:d4:50:63:ad:9b:5c:c5:cd:a3:68:fc:a9:e0:
        d8:20:d1:3e
-----BEGIN CERTIFICATE-----
MIIDQTCCAimgAwIBAgIBAjANBgkqhkiG9w0BAQsFADApMRUwEwYDVQQDDAxDb2Zs
bmV0IEdtYkgxEDAOBgNVBAoMB0NvZmxuZXQwHhcNMjUxMDE0MTg1NjA1WhcNMzEw
NDA2MTg1NjA1WjAsMRAwDgYDVQQKDAdDb2ZsbmV0MRgwFgYDVQQDDA9za3kuY29m
bG5ldC5jb20wggEiMA0GCSqGSIb3DQEBAQUAA4IBDwAwggEKAoIBAQDdhnh1DZ7s
/ImozGutPSF4lQ/LAedQQgenMmLpQ75KBsmvLsafKu7lNuio7JLHziSnevtDpyvM
KUU+gBJJnbY+P11I1HcyS9Gd1Cd3yB99Si/ZnXJhbL0hVm52PzMf6I2XTZqTLgmQ
swnaVuIqgmG0Kh0jSKJNNV5P4neBETG19otVzODxvqQSB8u7dqFf/DlIopTbaFcW
4f0Tezn/iXBMBA8ZsSxrfmjf1GIeqrpE+g+8jNO882jyxhmvLhhDsZVdWbZw0k5P
Fc8Wz3rHvpQsM4i840aJk5RYqxl012UcSsxeMKtiZgpfdbi0u9dSBZ/An122A03e
7J+UfkJ9j60lAgMBAAGjcTBvMA4GA1UdDwEB/wQEAwIFoDAdBgNVHSUEFjAUBggr
BgEFBQcDAQYIKwYBBQUHAwIwHQYDVR0OBBYEFBz4bcIDpds08CKZb1GSFMAVd0Zu
MB8GA1UdIwQYMBaAFM0l2zR8ogcPo9HFucZVPhXWgI+aMA0GCSqGSIb3DQEBCwUA
A4IBAQDwOixNPbxtnEyOhgTXFcXdPqTaM90ECYwNJVNu+5op/Y0hX/FB3uOcafkn
J7VfTkxkZn9Z+IE+MOr/ypduQTVXX9agePgNDGgDZICDM9PlNvQQWLtBdiroi8xP
RZkn0B5X/CVt1RTeEkM1Hl3GqRaVyoxeCErOess10GQGFN7EUbDPCz92vtXOLh2x
xGtZ0wSEWr1MXbtwxy4FJEIIPEOhJOB+jUT3bdEud0WnQE8W83odf0uX1bCxTW7m
pZOcLXhBhvvigfgHOfO2q9i1JS7OYkLH+C3UE0HBNxkFirGy8itYSGRsnWKdY7Kj
8dqd09RQY62bXMXNo2j8qeDYINE+
-----END CERTIFICATE-----
