Certificate:
    Data:
        Version: 3 (0x2)
        Serial Number: 3 (0x3)
        Signature Algorithm: sha256WithRSAEncryption
        Issuer: O=Coflnet, CN=Coflnet GmbH
        Validity
            Not Before: Oct 16 18:46:58 2024 GMT
            Not After : Apr  8 18:46:58 2030 GMT
        Subject: O=Coflnet, CN=sky.coflnet.com.com
        Subject Public Key Info:
            Public Key Algorithm: rsaEncryption
                Public-Key: (2048 bit)
                Modulus:
                    00:dd:56:0f:15:58:cc:ff:88:9d:f7:c1:86:2f:ec:
                    15:f8:b9:da:0f:1f:f3:dd:1c:d9:43:bf:91:3e:0f:
                    54:23:a4:3d:bb:27:93:97:df:65:ac:1a:e3:26:23:
                    76:8a:45:66:9c:31:1b:bc:bc:69:15:92:99:05:85:
                    83:40:92:40:e0:55:1b:7e:8d:5c:2e:51:18:85:0a:
                    c0:b8:0c:9f:29:9c:84:b2:65:46:03:f2:c0:53:f7:
                    ee:58:82:db:60:4e:fb:1f:c7:48:3e:ad:24:f9:e6:
                    e9:0d:52:34:11:3f:57:85:b4:ae:39:a6:a5:d8:29:
                    2a:ea:1b:cd:b6:7b:65:00:2c:cf:d2:c8:24:65:7f:
                    85:5d:39:53:68:78:33:af:b2:2b:c4:5e:c1:4d:ed:
                    72:0e:fa:3e:a3:16:bd:1a:69:bc:65:ee:40:63:ff:
                    a4:e6:67:19:4c:8c:63:b6:39:07:ce:ae:f4:0a:4a:
                    a7:8b:1c:5e:31:22:05:33:bb:c7:d7:09:28:98:6f:
                    c9:36:1e:4e:dc:5c:d7:d9:74:91:f9:66:5f:4f:cb:
                    d9:3c:2d:4e:0f:85:b3:a6:31:8f:6c:1c:fb:7b:52:
                    e1:c2:35:0e:84:a6:8f:58:3d:91:c5:1b:92:fb:fc:
                    13:df:e4:d3:0b:8e:1e:6f:ed:b7:f1:1d:a0:e1:6a:
                    82:b1
                Exponent: 65537 (0x10001)
        X509v3 extensions:
            X509v3 Key Usage: critical
                Digital Signature, Key Encipherment
            X509v3 Extended Key Usage: 
                TLS Web Server Authentication, TLS Web Client Authentication
            X509v3 Subject Key Identifier: 
                D6:FE:9F:FD:28:5C:C6:8E:1E:7A:9C:94:2E:E8:AA:40:0A:0A:78:E9
            X509v3 Authority Key Identifier: 
                76:F7:15:E8:45:2C:B7:66:DF:2B:5D:37:A9:6D:22:3F:29:7E:55:02
    Signature Algorithm: sha256WithRSAEncryption
    Signature Value:
        c2:10:48:6a:b8:77:60:14:dd:d9:bd:8f:de:02:28:12:08:72:
        8a:5b:d8:f4:20:a3:c7:67:65:84:90:67:02:f0:86:a3:99:24:
        83:e1:96:57:6c:a6:33:98:dc:10:1a:d6:86:ae:25:9e:fb:0b:
        66:df:27:2c:cc:02:86:6b:85:0f:6d:11:9e:ee:89:56:81:0f:
        c6:a0:88:5f:2b:6c:bd:f5:bf:f8:19:66:20:ca:8e:62:00:5e:
        a5:45:74:a3:1a:7f:82:65:15:e3:36:08:71:86:1e:7a:41:e4:
        a7:7d:be:73:44:f4:95:ee:ed:cc:f9:86:25:8b:e4:97:9c:c1:
        77:60:7f:34:69:4e:aa:d0:d4:78:7f:55:6e:67:5e:98:2a:0e:
        8b:05:a3:54:ac:08:99:f1:8f:5f:f5:40:f3:6f:b7:e8:1f:0f:
        55:2b:8e:08:7b:b1:9f:5a:f9:ec:97:79:42:96:b3:ab:9f:50:
        34:bd:c5:9f:30:5e:d4:cb:de:e8:b7:e2:7a:0a:47:32:42:18:
        bb:8b:80:9a:4d:c5:9b:b2:a4:07:e3:4e:4b:a5:86:39:21:ab:
        d2:88:7b:2f:08:ff:68:49:5f:bd:77:cf:a3:19:e9:ac:c6:fd:
        50:aa:2b:eb:b8:e1:b2:79:95:e1:a9:eb:e9:4c:58:7d:96:13:
        9c:fe:a5:e3
-----BEGIN CERTIFICATE-----
MIIDRTCCAi2gAwIBAgIBAzANBgkqhkiG9w0BAQsFADApMRAwDgYDVQQKDAdDb2Zs
bmV0MRUwEwYDVQQDDAxDb2ZsbmV0IEdtYkgwHhcNMjQxMDE2MTg0NjU4WhcNMzAw
NDA4MTg0NjU4WjAwMRAwDgYDVQQKDAdDb2ZsbmV0MRwwGgYDVQQDDBNza3kuY29m
bG5ldC5jb20uY29tMIIBIjANBgkqhkiG9w0BAQEFAAOCAQ8AMIIBCgKCAQEA3VYP
FVjM/4id98GGL+wV+LnaDx/z3RzZQ7+RPg9UI6Q9uyeTl99lrBrjJiN2ikVmnDEb
vLxpFZKZBYWDQJJA4FUbfo1cLlEYhQrAuAyfKZyEsmVGA/LAU/fuWILbYE77H8dI
Pq0k+ebpDVI0ET9XhbSuOaal2Ckq6hvNtntlACzP0sgkZX+FXTlTaHgzr7IrxF7B
Te1yDvo+oxa9Gmm8Ze5AY/+k5mcZTIxjtjkHzq70CkqnixxeMSIFM7vH1wkomG/J
Nh5O3FzX2XSR+WZfT8vZPC1OD4WzpjGPbBz7e1LhwjUOhKaPWD2RxRuS+/wT3+TT
C44eb+238R2g4WqCsQIDAQABo3EwbzAOBgNVHQ8BAf8EBAMCBaAwHQYDVR0lBBYw
FAYIKwYBBQUHAwEGCCsGAQUFBwMCMB0GA1UdDgQWBBTW/p/9KFzGjh56nJQu6KpA
Cgp46TAfBgNVHSMEGDAWgBR29xXoRSy3Zt8rXTepbSI/KX5VAjANBgkqhkiG9w0B
AQsFAAOCAQEAwhBIarh3YBTd2b2P3gIoEghyilvY9CCjx2dlhJBnAvCGo5kkg+GW
V2ymM5jcEBrWhq4lnvsLZt8nLMwChmuFD20Rnu6JVoEPxqCIXytsvfW/+BlmIMqO
YgBepUV0oxp/gmUV4zYIcYYeekHkp32+c0T0le7tzPmGJYvkl5zBd2B/NGlOqtDU
eH9VbmdemCoOiwWjVKwImfGPX/VA82+36B8PVSuOCHuxn1r57Jd5Qpazq59QNL3F
nzBe1Mve6LfiegpHMkIYu4uAmk3Fm7KkB+NOS6WGOSGr0oh7Lwj/aElfvXfPoxnp
rMb9UKor67jhsnmV4anr6UxYfZYTnP6l4w==
-----END CERTIFICATE-----
