Certificate:
    Data:
        Version: 3 (0x2)
        Serial Number: 4 (0x4)
        Signature Algorithm: sha256WithRSAEncryption
        Issuer: CN=Coflnet GmbH, O=Coflnet
        Validity
            Not Before: Oct 14 19:38:07 2025 GMT
            Not After : Apr  6 19:38:07 2031 GMT
        Subject: O=Coflnet, CN=true-relevance-targeting.com
        Subject Public Key Info:
            Public Key Algorithm: rsaEncryption
                Public-Key: (2048 bit)
                Modulus:
                    00:dc:83:73:45:6a:6e:0d:c4:2b:92:3f:8a:63:a0:
                    85:24:11:1b:1c:0b:81:bb:be:dc:10:c2:f7:39:f9:
                    c3:88:11:f6:e8:80:21:a5:f6:be:8f:f3:8a:a4:bf:
                    09:bb:de:fd:8c:21:78:45:ed:62:25:15:50:ac:a7:
                    ed:90:e6:e9:9c:58:eb:5e:6f:9a:f3:2f:7d:af:93:
                    5e:a0:f7:6f:c3:b2:91:b8:e1:5d:13:e8:59:2b:d5:
                    f4:bb:36:09:ec:1f:95:d6:55:74:70:c8:fd:18:96:
                    db:b1:d1:30:88:4b:1b:1b:3c:0a:dc:6b:d3:f9:a5:
                    11:b7:50:5f:94:62:85:1b:9a:c7:52:0c:8e:6d:28:
                    7f:99:37:ad:27:58:49:d0:30:08:66:61:b8:55:15:
                    3d:bb:d6:87:07:d5:75:6e:2d:6b:8c:f1:9f:fc:16:
                    67:9a:ad:d9:78:5b:0b:19:7d:6c:ad:01:50:63:ed:
                    1d:9a:cf:f3:08:cf:20:60:39:81:b4:3c:af:9f:2e:
                    f7:67:b5:23:3f:10:49:11:1a:ad:ce:95:64:20:6d:
                    0f:74:68:39:67:ca:4a:4a:de:57:7c:3e:61:83:73:
                    f6:06:77:c9:5d:7b:18:78:75:ba:20:b3:a4:2c:73:
                    f5:6b:fa:4a:46:02:57:60:8a:c5:82:38:ab:84:07:
                    cb:a5
                Exponent: 65537 (0x10001)
        X509v3 extensions:
            X509v3 Key Usage: critical
                Digital Signature, Key Encipherment
            X509v3 Extended Key Usage: 
                TLS Web Server Authentication, TLS Web Client Authentication
            X509v3 Subject Key Identifier: 
                FE:5E:17:F2:E9:FC:4F:EC:A5:C7:13:28:15:C6:D1:F2:23:07:5C:FC
            X509v3 Authority Key Identifier: 
                76:F7:15:E8:45:2C:B7:66:DF:2B:5D:37:A9:6D:22:3F:29:7E:55:02
    Signature Algorithm: sha256WithRSAEncryption
    Signature Value:
        86:47:1c:cc:97:cd:33:ce:8b:d6:95:a0:a7:5f:0d:35:4e:a3:
        64:ef:d1:2e:e1:7e:c4:28:ea:20:2d:6e:63:39:0c:02:1d:98:
        35:1a:2a:11:13:7a:25:ad:ba:56:61:26:d1:ba:49:5e:93:e0:
        ee:5a:66:e9:6c:7f:b6:ba:83:5b:5a:a9:48:dd:ed:c1:ed:93:
        aa:a4:0f:81:0c:bc:82:dc:97:63:01:0d:58:62:10:f6:17:34:
        6b:b2:f4:f9:9d:98:b6:69:9d:1d:fb:29:15:55:c0:68:ba:8f:
        ba:0b:fc:dc:f1:29:aa:4c:6a:fb:42:ef:07:7f:36:d2:1c:61:
        f2:60:95:5a:28:ee:5a:10:aa:cb:1e:b2:9d:6a:18:69:76:6a:
        49:e3:58:5a:51:aa:06:7f:b4:5c:23:2e:86:df:fd:98:40:db:
        11:2e:a9:36:e6:7d:3c:24:d9:17:ef:6c:29:c6:7a:03:97:99:
        d9:08:0e:79:4f:77:83:8e:fd:9b:41:06:1c:aa:4e:81:55:04:
        b7:e1:2a:90:29:96:7b:b1:d6:71:e8:1f:10:f0:5f:6c:12:3f:
        38:75:fd:bc:74:85:8c:88:18:15:0d:c2:06:27:d3:3e:27:bb:
        ee:15:e2:07:1d:1c:26:99:c2:f9:9a:e4:48:29:74:9f:14:4d:
        4d:22:e8:da
-----BEGIN CERTIFICATE-----
MIIDTjCCAjagAwIBAgIBBDANBgkqhkiG9w0BAQsFADApMRUwEwYDVQQDDAxDb2Zs
bmV0IEdtYkgxEDAOBgNVBAoMB0NvZmxuZXQwHhcNMjUxMDE0MTkzODA3WhcNMzEw
NDA2MTkzODA3WjA5MRAwDgYDVQQKDAdDb2ZsbmV0MSUwIwYDVQQDDBx0cnVlLXJl
bGV2YW5jZS10YXJnZXRpbmcuY29tMIIBIjANBgkqhkiG9w0BAQEFAAOCAQ8AMIIB
CgKCAQEA3INzRWpuDcQrkj+KY6CFJBEbHAuBu77cEML3OfnDiBH26IAhpfa+j/OK
pL8Ju979jCF4Re1iJRVQrKftkObpnFjrXm+a8y99r5NeoPdvw7KRuOFdE+hZK9X0
uzYJ7B+V1lV0cMj9GJbbsdEwiEsbGzwK3GvT+aURt1BflGKFG5rHUgyObSh/mTet
J1hJ0DAIZmG4VRU9u9aHB9V1bi1rjPGf/BZnmq3ZeFsLGX1srQFQY+0dms/zCM8g
YDmBtDyvny73Z7UjPxBJERqtzpVkIG0PdGg5Z8pKSt5XfD5hg3P2BnfJXXsYeHW6
ILOkLHP1a/pKRgJXYIrFgjirhAfLpQIDAQABo3EwbzAOBgNVHQ8BAf8EBAMCBaAw
HQYDVR0lBBYwFAYIKwYBBQUHAwEGCCsGAQUFBwMCMB0GA1UdDgQWBBT+Xhfy6fxP
7KXHEygVxtHyIwdc/DAfBgNVHSMEGDAWgBR29xXoRSy3Zt8rXTepbSI/KX5VAjAN
BgkqhkiG9w0BAQsFAAOCAQEAhkcczJfNM86L1pWgp18NNU6jZO/RLuF+xCjqIC1u
YzkMAh2YNRoqERN6Ja26VmEm0bpJXpPg7lpm6Wx/trqDW1qpSN3twe2TqqQPgQy8
gtyXYwENWGIQ9hc0a7L0+Z2YtmmdHfspFVXAaLqPugv83PEpqkxq+0LvB3820hxh
8mCVWijuWhCqyx6ynWoYaXZqSeNYWlGqBn+0XCMuht/9mEDbES6pNuZ9PCTZF+9s
KcZ6A5eZ2QgOeU93g479m0EGHKpOgVUEt+EqkCmWe7HWcegfEPBfbBI/OHX9vHSF
jIgYFQ3CBifTPie77hXiBx0cJpnC+ZrkSCl0nxRNTSLo2g==
-----END CERTIFICATE-----
