Certificate:
    Data:
        Version: 3 (0x2)
        Serial Number: 5 (0x5)
        Signature Algorithm: sha256WithRSAEncryption
        Issuer: CN=Coflnet GmbH, O=Coflnet
        Validity
            Not Before: Oct 14 19:49:45 2025 GMT
            Not After : Apr  6 19:49:45 2031 GMT
        Subject: O=Coflnet, CN=true-relevance-targeting.com
        Subject Public Key Info:
            Public Key Algorithm: rsaEncryption
                Public-Key: (2048 bit)
                Modulus:
                    00:a3:de:3a:45:e8:b7:59:12:08:66:cc:4d:67:31:
                    66:d0:24:ca:e9:3f:a8:11:08:e8:54:c7:75:f3:95:
                    10:e0:d1:07:77:4e:4d:72:dc:57:5d:62:65:fa:0b:
                    09:91:cb:ef:fc:54:0b:26:04:9b:bd:73:92:b5:db:
                    62:94:14:ed:69:fc:c6:64:53:cb:27:c5:0e:05:9b:
                    89:8d:2a:81:68:e4:75:3b:51:eb:6c:cf:49:09:4e:
                    a3:b0:fc:99:9c:ba:03:20:3d:c3:a5:7f:f9:ac:ee:
                    ff:b9:32:1b:c7:6f:84:50:bc:fd:66:85:01:d4:70:
                    00:37:cb:a0:a8:d2:bd:03:d9:c9:37:e9:c7:ea:9e:
                    82:c4:89:b9:2d:64:c0:13:90:21:cf:67:88:a2:4a:
                    01:97:a1:2d:ea:05:0a:32:ef:c9:c0:b9:55:ff:dd:
                    91:f0:98:23:3f:a0:1f:35:86:31:8c:ae:fc:95:c1:
                    92:0a:71:48:e0:71:28:df:96:7a:69:6d:12:7f:dc:
                    ce:44:e9:23:c8:d3:3c:4a:ee:94:0e:8c:6b:70:4b:
                    76:24:14:b1:cc:bd:ec:d6:55:72:ad:fe:83:de:73:
                    af:35:f3:2c:a9:c9:49:ab:33:c5:a0:d4:d6:2e:d6:
                    23:09:ed:87:e5:ef:96:e9:06:3d:87:24:08:9d:a0:
                    33:47
                Exponent: 65537 (0x10001)
        X509v3 extensions:
            X509v3 Key Usage: critical
                Digital Signature, Key Encipherment
            X509v3 Extended Key Usage: 
                TLS Web Server Authentication, TLS Web Client Authentication
            X509v3 Subject Key Identifier: 
                5E:07:5B:D5:6F:E9:02:3A:C0:45:65:17:84:1C:88:2C:5D:53:DC:16
            X509v3 Authority Key Identifier: 
                76:F7:15:E8:45:2C:B7:66:DF:2B:5D:37:A9:6D:22:3F:29:7E:55:02
    Signature Algorithm: sha256WithRSAEncryption
    Signature Value:
        4a:a8:ab:8b:7b:a8:a6:28:6c:0d:4d:68:ec:69:91:a2:62:76:
        04:cb:8b:9e:54:39:07:15:16:84:67:d6:61:64:ed:dc:9b:a2:
        00:0e:4d:11:bc:c8:25:54:2d:f3:b9:18:92:3c:ae:e4:03:08:
        43:ef:0c:97:ae:fb:9f:e4:93:ff:98:2f:fb:d4:04:57:66:91:
        7e:82:63:a5:c6:f8:f9:cd:97:1d:fd:cb:57:09:83:75:5b:14:
        24:0b:3f:af:c4:1f:68:40:54:a3:a8:6f:3e:3f:d9:52:a5:b5:
        e2:65:a7:10:f0:a2:ca:0f:56:51:41:cf:9c:65:b5:51:5a:b6:
        5b:ae:dd:da:9a:59:f0:68:6d:ea:ac:86:3e:9d:7a:b0:f9:8b:
        c0:7b:9c:39:4a:78:04:fa:ae:c9:d7:d6:f4:4a:a9:fe:0f:7c:
        de:70:6c:54:9e:11:d9:3b:b7:dd:1a:c9:dd:d5:11:52:45:ad:
        2a:f6:9f:9c:9e:0d:a3:36:be:3d:12:51:7c:e5:ef:8e:42:55:
        4a:26:dd:67:b6:98:f4:7c:d8:c0:87:b0:18:e1:fe:f3:2e:d0:
        3b:4a:c8:5f:97:4c:48:ee:a1:12:6c:36:ca:03:37:d7:5d:3d:
        0a:bb:98:b1:2a:fb:06:57:cd:87:0f:86:b0:f1:3f:31:66:4f:
        94:b1:d8:9a
-----BEGIN CERTIFICATE-----
MIIDTjCCAjagAwIBAgIBBTANBgkqhkiG9w0BAQsFADApMRUwEwYDVQQDDAxDb2Zs
bmV0IEdtYkgxEDAOBgNVBAoMB0NvZmxuZXQwHhcNMjUxMDE0MTk0OTQ1WhcNMzEw
NDA2MTk0OTQ1WjA5MRAwDgYDVQQKDAdDb2ZsbmV0MSUwIwYDVQQDDBx0cnVlLXJl
bGV2YW5jZS10YXJnZXRpbmcuY29tMIIBIjANBgkqhkiG9w0BAQEFAAOCAQ8AMIIB
CgKCAQEAo946Rei3WRIIZsxNZzFm0CTK6T+oEQjoVMd185UQ4NEHd05NctxXXWJl
+gsJkcvv/FQLJgSbvXOStdtilBTtafzGZFPLJ8UOBZuJjSqBaOR1O1HrbM9JCU6j
sPyZnLoDID3DpX/5rO7/uTIbx2+EULz9ZoUB1HAAN8ugqNK9A9nJN+nH6p6CxIm5
LWTAE5Ahz2eIokoBl6Et6gUKMu/JwLlV/92R8JgjP6AfNYYxjK78lcGSCnFI4HEo
35Z6aW0Sf9zOROkjyNM8Su6UDoxrcEt2JBSxzL3s1lVyrf6D3nOvNfMsqclJqzPF
oNTWLtYjCe2H5e+W6QY9hyQInaAzRwIDAQABo3EwbzAOBgNVHQ8BAf8EBAMCBaAw
HQYDVR0lBBYwFAYIKwYBBQUHAwEGCCsGAQUFBwMCMB0GA1UdDgQWBBReB1vVb+kC
OsBFZReEHIgsXVPcFjAfBgNVHSMEGDAWgBR29xXoRSy3Zt8rXTepbSI/KX5VAjAN
BgkqhkiG9w0BAQsFAAOCAQEASqiri3uopihsDU1o7GmRomJ2BMuLnlQ5BxUWhGfW
YWTt3JuiAA5NEbzIJVQt87kYkjyu5AMIQ+8Ml677n+ST/5gv+9QEV2aRfoJjpcb4
+c2XHf3LVwmDdVsUJAs/r8QfaEBUo6hvPj/ZUqW14mWnEPCiyg9WUUHPnGW1UVq2
W67d2ppZ8Ght6qyGPp16sPmLwHucOUp4BPquydfW9Eqp/g983nBsVJ4R2Tu33RrJ
3dURUkWtKvafnJ4Noza+PRJRfOXvjkJVSibdZ7aY9HzYwIewGOH+8y7QO0rIX5dM
SO6hEmw2ygM31109CruYsSr7BlfNhw+GsPE/MWZPlLHYmg==
-----END CERTIFICATE-----
