Certificate:
    Data:
        Version: 3 (0x2)
        Serial Number: 6 (0x6)
        Signature Algorithm: sha256WithRSAEncryption
        Issuer: CN=Coflnet GmbH, O=Coflnet
        Validity
            Not Before: Oct 14 20:08:45 2025 GMT
            Not After : Apr  6 20:08:45 2031 GMT
        Subject: O=Coflnet, CN=monitoring-prometheus
        Subject Public Key Info:
            Public Key Algorithm: rsaEncryption
                Public-Key: (2048 bit)
                Modulus:
                    00:b4:68:2e:62:30:b7:b6:84:86:bc:4d:50:3f:73:
                    18:44:c5:e8:ee:36:bd:d9:b0:95:8d:fc:8e:6f:e7:
                    d6:a6:62:39:37:4f:99:6c:ae:0a:d0:31:dd:f0:f4:
                    42:74:84:13:e1:a3:25:fd:d6:de:0f:7c:99:de:c1:
                    72:73:87:99:40:91:28:aa:f8:a4:09:b7:25:a1:c0:
                    de:26:cc:1b:91:fe:54:2f:e1:a9:98:87:50:b1:15:
                    73:8c:56:04:70:66:e4:3c:ec:d7:43:f9:a9:1c:78:
                    4b:90:4b:bc:d0:c0:6a:79:6f:c0:89:69:a4:e8:da:
                    fe:b3:db:16:6f:3a:5a:c4:22:b9:fa:79:48:f1:dd:
                    2f:1c:83:8e:af:b0:89:30:9e:c7:f0:b6:d7:9f:78:
                    c5:1f:f4:a3:f1:c5:63:57:02:1e:99:94:b7:39:80:
                    e8:55:37:ac:96:5e:0a:54:2f:9a:2a:21:16:83:35:
                    60:88:b7:6e:38:bd:8c:82:72:17:c5:da:00:56:6d:
                    9f:4c:70:a5:0a:f2:df:6a:64:72:ce:91:dd:a5:7e:
                    20:37:d0:1c:89:0d:85:49:13:0c:19:f5:0a:2d:a1:
                    10:0e:4c:7d:c3:e6:39:db:ae:b2:8a:f6:57:a2:13:
                    f8:df:d9:6a:16:2e:07:63:2b:01:35:0f:d1:61:13:
                    df:23
                Exponent: 65537 (0x10001)
        X509v3 extensions:
            X509v3 Key Usage: critical
                Digital Signature, Key Encipherment
            X509v3 Extended Key Usage: 
                TLS Web Server Authentication, TLS Web Client Authentication
            X509v3 Subject Key Identifier: 
                F8:9A:96:5B:07:85:23:67:04:2D:A0:4E:0F:0F:DD:FC:61:3F:DB:A9
            X509v3 Authority Key Identifier: 
                76:F7:15:E8:45:2C:B7:66:DF:2B:5D:37:A9:6D:22:3F:29:7E:55:02
    Signature Algorithm: sha256WithRSAEncryption
    Signature Value:
        8d:f9:6c:12:b3:03:32:bc:b7:48:41:1d:d9:4a:fe:ea:cf:91:
        27:f0:ef:fc:3a:2c:a5:57:f9:ee:dd:5e:cb:9a:fc:d7:af:54:
        1f:14:98:83:48:cb:cd:a9:7c:53:47:a0:67:df:ee:eb:d5:d1:
        ed:e1:8b:8d:e1:1f:74:bb:83:ea:b0:54:27:87:a7:ad:e6:20:
        89:6f:c3:0a:c1:b6:a0:6b:c2:ff:62:3a:96:42:c0:b5:34:dc:
        c4:5e:4b:8b:c4:d4:0a:21:0d:0d:2d:e3:16:f5:5c:4e:45:4f:
        76:55:b5:e8:04:5f:54:38:74:1e:bb:75:00:31:1b:2d:83:9a:
        ce:bc:f1:dd:f8:36:30:5a:08:b3:19:d0:28:04:24:47:bf:d2:
        51:e1:e3:57:d0:dd:38:a8:6b:df:32:d7:c5:84:60:34:b6:09:
        4e:be:6b:33:26:b7:0c:9e:8d:2c:b0:49:7c:3c:f4:7c:34:98:
        90:72:de:84:63:bc:16:68:ff:62:da:b0:e0:b2:90:e1:bf:ff:
        2b:86:03:fc:e9:07:81:26:bd:d0:dc:c6:88:34:40:1b:8b:d9:
        02:73:7a:fd:2a:d2:23:10:f6:26:86:e6:e7:e2:4b:0f:a1:eb:
        01:81:f6:dc:9c:55:c8:2c:42:78:47:81:ee:ea:e5:98:2c:e1:
        31:d2:ab:2e
-----BEGIN CERTIFICATE-----
MIIDRzCCAi+gAwIBAgIBBjANBgkqhkiG9w0BAQsFADApMRUwEwYDVQQDDAxDb2Zs
bmV0IEdtYkgxEDAOBgNVBAoMB0NvZmxuZXQwHhcNMjUxMDE0MjAwODQ1WhcNMzEw
NDA2MjAwODQ1WjAyMRAwDgYDVQQKDAdDb2ZsbmV0MR4wHAYDVQQDDBVtb25pdG9y
aW5nLXByb21ldGhldXMwggEiMA0GCSqGSIb3DQEBAQUAA4IBDwAwggEKAoIBAQC0
aC5iMLe2hIa8TVA/cxhExejuNr3ZsJWN/I5v59amYjk3T5lsrgrQMd3w9EJ0hBPh
oyX91t4PfJnewXJzh5lAkSiq+KQJtyWhwN4mzBuR/lQv4amYh1CxFXOMVgRwZuQ8
7NdD+akceEuQS7zQwGp5b8CJaaTo2v6z2xZvOlrEIrn6eUjx3S8cg46vsIkwnsfw
ttefeMUf9KPxxWNXAh6ZlLc5gOhVN6yWXgpUL5oqIRaDNWCIt244vYyCchfF2gBW
bZ9McKUK8t9qZHLOkd2lfiA30ByJDYVJEwwZ9QotoRAOTH3D5jnbrrKK9leiE/jf
2WoWLgdjKwE1D9FhE98jAgMBAAGjcTBvMA4GA1UdDwEB/wQEAwIFoDAdBgNVHSUE
FjAUBggrBgEFBQcDAQYIKwYBBQUHAwIwHQYDVR0OBBYEFPiallsHhSNnBC2gTg8P
3fxhP9upMB8GA1UdIwQYMBaAFHb3FehFLLdm3ytdN6ltIj8pflUCMA0GCSqGSIb3
DQEBCwUAA4IBAQCN+WwSswMyvLdIQR3ZSv7qz5En8O/8OiylV/nu3V7LmvzXr1Qf
FJiDSMvNqXxTR6Bn3+7r1dHt4YuN4R90u4PqsFQnh6et5iCJb8MKwbaga8L/YjqW
QsC1NNzEXkuLxNQKIQ0NLeMW9VxORU92VbXoBF9UOHQeu3UAMRstg5rOvPHd+DYw
WgizGdAoBCRHv9JR4eNX0N04qGvfMtfFhGA0tglOvmszJrcMno0ssEl8PPR8NJiQ
ct6EY7wWaP9i2rDgspDhv/8rhgP86QeBJr3Q3MaINEAbi9kCc3r9KtIjEPYmhubn
4ksPoesBgfbcnFXILEJ4R4Hu6uWYLOEx0qsu
-----END CERTIFICATE-----
