Certificate:
    Data:
        Version: 3 (0x2)
        Serial Number: 2 (0x2)
        Signature Algorithm: sha256WithRSAEncryption
        Issuer: CN=Coflnet GmbH, O=Coflnet
        Validity
            Not Before: Oct 14 19:53:05 2025 GMT
            Not After : Apr  6 19:53:05 2031 GMT
        Subject: O=Coflnet, CN=true-relevance-targeting.com
        Subject Public Key Info:
            Public Key Algorithm: rsaEncryption
                Public-Key: (2048 bit)
                Modulus:
                    00:a3:de:3a:45:e8:b7:59:12:08:66:cc:4d:67:31:
                    66:d0:24:ca:e9:3f:a8:11:08:e8:54:c7:75:f3:95:
                    10:e0:d1:07:77:4e:4d:72:dc:57:5d:62:65:fa:0b:
                    09:91:cb:ef:fc:54:0b:26:04:9b:bd:73:92:b5:db:
                    62:94:14:ed:69:fc:c6:64:53:cb:27:c5:0e:05:9b:
                    89:8d:2a:81:68:e4:75:3b:51:eb:6c:cf:49:09:4e:
                    a3:b0:fc:99:9c:ba:03:20:3d:c3:a5:7f:f9:ac:ee:
                    ff:b9:32:1b:c7:6f:84:50:bc:fd:66:85:01:d4:70:
                    00:37:cb:a0:a8:d2:bd:03:d9:c9:37:e9:c7:ea:9e:
                    82:c4:89:b9:2d:64:c0:13:90:21:cf:67:88:a2:4a:
                    01:97:a1:2d:ea:05:0a:32:ef:c9:c0:b9:55:ff:dd:
                    91:f0:98:23:3f:a0:1f:35:86:31:8c:ae:fc:95:c1:
                    92:0a:71:48:e0:71:28:df:96:7a:69:6d:12:7f:dc:
                    ce:44:e9:23:c8:d3:3c:4a:ee:94:0e:8c:6b:70:4b:
                    76:24:14:b1:cc:bd:ec:d6:55:72:ad:fe:83:de:73:
                    af:35:f3:2c:a9:c9:49:ab:33:c5:a0:d4:d6:2e:d6:
                    23:09:ed:87:e5:ef:96:e9:06:3d:87:24:08:9d:a0:
                    33:47
                Exponent: 65537 (0x10001)
        X509v3 extensions:
            X509v3 Key Usage: critical
                Digital Signature, Key Encipherment
            X509v3 Extended Key Usage: 
                TLS Web Server Authentication, TLS Web Client Authentication
            X509v3 Subject Key Identifier: 
                5E:07:5B:D5:6F:E9:02:3A:C0:45:65:17:84:1C:88:2C:5D:53:DC:16
            X509v3 Authority Key Identifier: 
                CD:25:DB:34:7C:A2:07:0F:A3:D1:C5:B9:C6:55:3E:15:D6:80:8F:9A
    Signature Algorithm: sha256WithRSAEncryption
    Signature Value:
        2d:35:a4:dc:2e:21:58:49:22:c1:26:7c:2a:51:c7:94:3d:ab:
        67:bf:0a:fd:63:c5:3f:da:f7:48:57:1e:e1:48:25:fd:7d:b0:
        59:0b:4b:58:b0:79:83:11:69:a7:ff:d5:14:ef:44:43:d9:01:
        74:a8:d2:30:3d:3f:69:68:83:74:11:97:9a:5f:70:c8:8f:0c:
        aa:31:be:88:aa:09:79:ed:b3:ba:d9:60:bc:29:15:ec:b9:d7:
        b2:e3:e6:fb:36:b0:c2:a4:01:4e:e9:16:1d:76:ae:c2:4e:f4:
        0f:c7:d3:fd:24:11:5b:c5:bf:f8:a2:90:8d:8c:6b:73:ae:2d:
        57:9a:d9:03:77:f2:17:41:be:a0:27:97:9d:b9:a9:a1:6a:fb:
        2f:76:23:72:5d:80:45:2a:ca:fc:49:96:89:b1:75:94:03:f5:
        36:c0:3f:f6:68:2d:ae:58:52:98:70:c4:0d:5f:c9:3f:73:d2:
        b9:f1:ca:8f:b3:91:58:2a:56:bf:da:f4:8a:b7:14:01:2f:cb:
        52:b6:55:e5:41:29:61:fe:79:c9:3b:a7:96:7d:ab:89:ff:65:
        8b:b2:e4:1c:2c:5f:3a:f7:b3:17:de:f1:88:1e:aa:b7:05:8e:
        20:3b:1a:3d:b2:6a:57:02:73:7f:f3:87:c6:f1:29:6b:23:19:
        cc:8a:2a:ff
-----BEGIN CERTIFICATE-----
MIIDTjCCAjagAwIBAgIBAjANBgkqhkiG9w0BAQsFADApMRUwEwYDVQQDDAxDb2Zs
bmV0IEdtYkgxEDAOBgNVBAoMB0NvZmxuZXQwHhcNMjUxMDE0MTk1MzA1WhcNMzEw
NDA2MTk1MzA1WjA5MRAwDgYDVQQKDAdDb2ZsbmV0MSUwIwYDVQQDDBx0cnVlLXJl
bGV2YW5jZS10YXJnZXRpbmcuY29tMIIBIjANBgkqhkiG9w0BAQEFAAOCAQ8AMIIB
CgKCAQEAo946Rei3WRIIZsxNZzFm0CTK6T+oEQjoVMd185UQ4NEHd05NctxXXWJl
+gsJkcvv/FQLJgSbvXOStdtilBTtafzGZFPLJ8UOBZuJjSqBaOR1O1HrbM9JCU6j
sPyZnLoDID3DpX/5rO7/uTIbx2+EULz9ZoUB1HAAN8ugqNK9A9nJN+nH6p6CxIm5
LWTAE5Ahz2eIokoBl6Et6gUKMu/JwLlV/92R8JgjP6AfNYYxjK78lcGSCnFI4HEo
35Z6aW0Sf9zOROkjyNM8Su6UDoxrcEt2JBSxzL3s1lVyrf6D3nOvNfMsqclJqzPF
oNTWLtYjCe2H5e+W6QY9hyQInaAzRwIDAQABo3EwbzAOBgNVHQ8BAf8EBAMCBaAw
HQYDVR0lBBYwFAYIKwYBBQUHAwEGCCsGAQUFBwMCMB0GA1UdDgQWBBReB1vVb+kC
OsBFZReEHIgsXVPcFjAfBgNVHSMEGDAWgBTNJds0fKIHD6PRxbnGVT4V1oCPmjAN
BgkqhkiG9w0BAQsFAAOCAQEALTWk3C4hWEkiwSZ8KlHHlD2rZ78K/WPFP9r3SFce
4Ugl/X2wWQtLWLB5gxFpp//VFO9EQ9kBdKjSMD0/aWiDdBGXml9wyI8MqjG+iKoJ
ee2zutlgvCkV7LnXsuPm+zawwqQBTukWHXauwk70D8fT/SQRW8W/+KKQjYxrc64t
V5rZA3fyF0G+oCeXnbmpoWr7L3Yjcl2ARSrK/EmWibF1lAP1NsA/9mgtrlhSmHDE
DV/JP3PSufHKj7ORWCpWv9r0ircUAS/LUrZV5UEpYf55yTunln2rif9li7LkHCxf
OvezF97xiB6qtwWOIDsaPbJqVwJzf/OHxvEpayMZzIoq/w==
-----END CERTIFICATE-----
