Certificate:
    Data:
        Version: 3 (0x2)
        Serial Number: 3 (0x3)
        Signature Algorithm: sha256WithRSAEncryption
        Issuer: CN=Coflnet GmbH, O=Coflnet
        Validity
            Not Before: Oct 14 19:32:42 2025 GMT
            Not After : Apr  6 19:32:42 2031 GMT
        Subject: O=Coflnet, CN=sky.coflnet.com.com
        Subject Public Key Info:
            Public Key Algorithm: rsaEncryption
                Public-Key: (2048 bit)
                Modulus:
                    00:dd:56:0f:15:58:cc:ff:88:9d:f7:c1:86:2f:ec:
                    15:f8:b9:da:0f:1f:f3:dd:1c:d9:43:bf:91:3e:0f:
                    54:23:a4:3d:bb:27:93:97:df:65:ac:1a:e3:26:23:
                    76:8a:45:66:9c:31:1b:bc:bc:69:15:92:99:05:85:
                    83:40:92:40:e0:55:1b:7e:8d:5c:2e:51:18:85:0a:
                    c0:b8:0c:9f:29:9c:84:b2:65:46:03:f2:c0:53:f7:
                    ee:58:82:db:60:4e:fb:1f:c7:48:3e:ad:24:f9:e6:
                    e9:0d:52:34:11:3f:57:85:b4:ae:39:a6:a5:d8:29:
                    2a:ea:1b:cd:b6:7b:65:00:2c:cf:d2:c8:24:65:7f:
                    85:5d:39:53:68:78:33:af:b2:2b:c4:5e:c1:4d:ed:
                    72:0e:fa:3e:a3:16:bd:1a:69:bc:65:ee:40:63:ff:
                    a4:e6:67:19:4c:8c:63:b6:39:07:ce:ae:f4:0a:4a:
                    a7:8b:1c:5e:31:22:05:33:bb:c7:d7:09:28:98:6f:
                    c9:36:1e:4e:dc:5c:d7:d9:74:91:f9:66:5f:4f:cb:
                    d9:3c:2d:4e:0f:85:b3:a6:31:8f:6c:1c:fb:7b:52:
                    e1:c2:35:0e:84:a6:8f:58:3d:91:c5:1b:92:fb:fc:
                    13:df:e4:d3:0b:8e:1e:6f:ed:b7:f1:1d:a0:e1:6a:
                    82:b1
                Exponent: 65537 (0x10001)
        X509v3 extensions:
            X509v3 Key Usage: critical
                Digital Signature, Key Encipherment
            X509v3 Extended Key Usage: 
                TLS Web Server Authentication, TLS Web Client Authentication
            X509v3 Subject Key Identifier: 
                D6:FE:9F:FD:28:5C:C6:8E:1E:7A:9C:94:2E:E8:AA:40:0A:0A:78:E9
            X509v3 Authority Key Identifier: 
                76:F7:15:E8:45:2C:B7:66:DF:2B:5D:37:A9:6D:22:3F:29:7E:55:02
    Signature Algorithm: sha256WithRSAEncryption
    Signature Value:
        71:ff:b5:2f:c6:b3:8c:10:ef:a9:43:1c:f2:06:93:35:0e:48:
        2c:9d:22:c5:c0:85:0c:c7:fd:54:67:c1:57:bb:df:0e:cb:14:
        28:97:fd:55:84:ca:b0:ce:f5:db:61:4e:75:26:82:3b:a1:cd:
        f0:a3:3b:1f:84:93:3d:61:b7:b9:7d:3e:8a:54:13:66:a1:6e:
        fc:1d:1f:50:09:e6:dc:0a:9d:16:57:b5:93:86:a5:b6:4d:62:
        4e:96:46:2e:db:8c:86:c4:de:34:7b:1b:71:ce:f7:7c:2d:46:
        00:f1:5e:25:a0:73:4b:ac:d3:93:2e:9c:45:ab:9f:e6:0a:c5:
        28:9c:3b:2b:68:e0:a0:dc:79:d4:42:76:91:23:0e:34:cb:9b:
        db:31:ae:ac:a1:c3:a5:ed:e3:33:ba:93:37:62:6a:fa:1e:b7:
        c3:97:55:ff:ec:41:ca:ea:ad:9a:87:6a:db:d6:30:3e:13:9d:
        42:c3:e8:31:0c:25:8b:5f:57:fa:a8:6f:60:6d:05:5b:08:85:
        fa:f5:56:37:fa:aa:d0:56:9b:39:80:a7:43:b3:8d:54:d9:ba:
        47:d3:df:a3:08:4c:67:2d:ba:15:88:37:10:cd:3a:f2:03:b8:
        24:32:48:53:32:92:a6:8a:69:00:91:f3:58:4f:9a:f2:36:9e:
        03:f2:39:0b
-----BEGIN CERTIFICATE-----
MIIDRTCCAi2gAwIBAgIBAzANBgkqhkiG9w0BAQsFADApMRUwEwYDVQQDDAxDb2Zs
bmV0IEdtYkgxEDAOBgNVBAoMB0NvZmxuZXQwHhcNMjUxMDE0MTkzMjQyWhcNMzEw
NDA2MTkzMjQyWjAwMRAwDgYDVQQKDAdDb2ZsbmV0MRwwGgYDVQQDDBNza3kuY29m
bG5ldC5jb20uY29tMIIBIjANBgkqhkiG9w0BAQEFAAOCAQ8AMIIBCgKCAQEA3VYP
FVjM/4id98GGL+wV+LnaDx/z3RzZQ7+RPg9UI6Q9uyeTl99lrBrjJiN2ikVmnDEb
vLxpFZKZBYWDQJJA4FUbfo1cLlEYhQrAuAyfKZyEsmVGA/LAU/fuWILbYE77H8dI
Pq0k+ebpDVI0ET9XhbSuOaal2Ckq6hvNtntlACzP0sgkZX+FXTlTaHgzr7IrxF7B
Te1yDvo+oxa9Gmm8Ze5AY/+k5mcZTIxjtjkHzq70CkqnixxeMSIFM7vH1wkomG/J
Nh5O3FzX2XSR+WZfT8vZPC1OD4WzpjGPbBz7e1LhwjUOhKaPWD2RxRuS+/wT3+TT
C44eb+238R2g4WqCsQIDAQABo3EwbzAOBgNVHQ8BAf8EBAMCBaAwHQYDVR0lBBYw
FAYIKwYBBQUHAwEGCCsGAQUFBwMCMB0GA1UdDgQWBBTW/p/9KFzGjh56nJQu6KpA
Cgp46TAfBgNVHSMEGDAWgBR29xXoRSy3Zt8rXTepbSI/KX5VAjANBgkqhkiG9w0B
AQsFAAOCAQEAcf+1L8azjBDvqUMc8gaTNQ5ILJ0ixcCFDMf9VGfBV7vfDssUKJf9
VYTKsM7122FOdSaCO6HN8KM7H4STPWG3uX0+ilQTZqFu/B0fUAnm3AqdFle1k4al
tk1iTpZGLtuMhsTeNHsbcc73fC1GAPFeJaBzS6zTky6cRauf5grFKJw7K2jgoNx5
1EJ2kSMONMub2zGurKHDpe3jM7qTN2Jq+h63w5dV/+xByuqtmodq29YwPhOdQsPo
MQwli19X+qhvYG0FWwiF+vVWN/qq0FabOYCnQ7ONVNm6R9PfowhMZy26FYg3EM06
8gO4JDJIUzKSpoppAJHzWE+a8jaeA/I5Cw==
-----END CERTIFICATE-----
