Certificate:
    Data:
        Version: 3 (0x2)
        Serial Number: 2 (0x2)
        Signature Algorithm: sha256WithRSAEncryption
        Issuer: O=Coflnet, CN=Coflnet GmbH
        Validity
            Not Before: Oct 16 09:50:12 2024 GMT
            Not After : Apr  8 09:50:12 2030 GMT
        Subject: O=Coflnet, CN=sky.coflnet.com.com
        Subject Public Key Info:
            Public Key Algorithm: rsaEncryption
                Public-Key: (2048 bit)
                Modulus:
                    00:f5:7b:a9:53:ff:f7:9e:45:80:93:69:a9:a9:87:
                    79:5b:7c:97:a9:79:83:b9:cd:67:e7:02:4d:bf:67:
                    c0:ea:be:36:35:56:99:a4:8b:9e:69:2d:08:8b:3b:
                    a2:ab:31:83:cc:b5:cd:db:8c:34:c2:d8:46:32:56:
                    bc:4e:a6:ec:99:b4:59:f0:cc:e6:a2:43:d6:c7:42:
                    ce:d3:2f:66:be:22:62:d7:37:c7:34:b6:66:be:a7:
                    f1:75:de:e5:2a:9b:97:5b:4d:f3:a6:b6:27:51:52:
                    2d:80:d3:c1:5d:18:2d:0c:fb:12:9c:0e:2c:33:4c:
                    cf:35:1d:e3:be:e6:3b:1b:b2:9a:76:3c:5c:f6:9e:
                    c8:1a:61:1c:84:6c:50:f2:57:ee:61:9c:93:0c:2e:
                    f8:9b:23:45:e4:b4:92:e3:1c:a1:83:8e:e6:c4:c1:
                    24:b6:ae:24:cf:6c:53:b1:3b:cb:a4:8d:22:88:98:
                    cc:d8:a9:7e:9e:3c:22:3c:8c:0e:ca:29:1a:1b:25:
                    a4:77:53:a4:98:4d:f8:2a:f1:93:93:f9:07:62:00:
                    2b:ac:a2:32:9c:1f:d2:f7:e1:72:a9:0d:71:f7:2e:
                    5f:0a:0d:37:ae:98:52:44:1d:93:2c:25:a4:ae:be:
                    62:72:cc:f5:86:3a:0d:1b:7a:4c:4a:6b:ff:46:fb:
                    21:c3
                Exponent: 65537 (0x10001)
        X509v3 extensions:
            X509v3 Key Usage: critical
                Digital Signature, Key Encipherment
            X509v3 Extended Key Usage: 
                TLS Web Server Authentication, TLS Web Client Authentication
            X509v3 Subject Key Identifier: 
                ED:94:E7:7A:FE:B8:C3:76:B4:F3:80:A4:4C:52:C1:C6:0E:10:5A:2E
            X509v3 Authority Key Identifier: 
                CD:25:DB:34:7C:A2:07:0F:A3:D1:C5:B9:C6:55:3E:15:D6:80:8F:9A
    Signature Algorithm: sha256WithRSAEncryption
    Signature Value:
        5a:f0:6c:bb:3d:de:fa:14:de:9a:5a:58:ed:d1:4d:5e:9c:72:
        fb:cc:be:3b:ab:91:c3:d9:ca:f4:de:41:08:03:7b:64:83:60:
        f1:0f:20:1b:3c:40:4c:8f:da:61:af:eb:43:bd:3f:24:09:a1:
        40:1e:55:39:ca:51:ff:c4:22:59:b0:1d:29:84:3e:13:98:63:
        99:0d:de:98:d1:f9:05:4d:95:88:8a:b9:a7:b0:2c:fb:50:a2:
        0c:ec:2b:b9:8e:b0:10:20:a0:cf:49:ff:83:14:e7:0c:8d:74:
        f0:31:39:75:bf:b8:7f:70:25:ef:6f:99:a3:0a:1f:d3:7b:5e:
        b8:f8:fb:06:3d:45:ce:ce:c0:60:51:4f:7d:7e:73:62:96:ca:
        31:ad:f7:84:75:15:a8:e1:01:f7:c9:f0:b5:2c:55:13:a9:42:
        52:1c:cf:72:3a:2f:50:21:0b:12:e6:86:8e:3f:f9:3a:87:76:
        33:b1:48:67:ec:4a:26:61:d0:27:3e:cd:99:a0:8e:0b:f1:1d:
        f7:31:40:d4:de:0f:1e:70:d4:af:c9:3e:63:58:16:6d:cf:68:
        ce:0e:1c:56:8a:18:c6:32:de:38:b3:84:b3:e5:a5:90:a3:af:
        a7:0f:2f:4f:51:6c:81:8d:b5:72:59:1e:c6:b6:e5:be:b5:59:
        e9:e9:15:95
-----BEGIN CERTIFICATE-----
MIIDRTCCAi2gAwIBAgIBAjANBgkqhkiG9w0BAQsFADApMRAwDgYDVQQKDAdDb2Zs
bmV0MRUwEwYDVQQDDAxDb2ZsbmV0IEdtYkgwHhcNMjQxMDE2MDk1MDEyWhcNMzAw
NDA4MDk1MDEyWjAwMRAwDgYDVQQKDAdDb2ZsbmV0MRwwGgYDVQQDDBNza3kuY29m
bG5ldC5jb20uY29tMIIBIjANBgkqhkiG9w0BAQEFAAOCAQ8AMIIBCgKCAQEA9Xup
U//3nkWAk2mpqYd5W3yXqXmDuc1n5wJNv2fA6r42NVaZpIueaS0IizuiqzGDzLXN
24w0wthGMla8TqbsmbRZ8MzmokPWx0LO0y9mviJi1zfHNLZmvqfxdd7lKpuXW03z
prYnUVItgNPBXRgtDPsSnA4sM0zPNR3jvuY7G7Kadjxc9p7IGmEchGxQ8lfuYZyT
DC74myNF5LSS4xyhg47mxMEktq4kz2xTsTvLpI0iiJjM2Kl+njwiPIwOyikaGyWk
d1OkmE34KvGTk/kHYgArrKIynB/S9+FyqQ1x9y5fCg03rphSRB2TLCWkrr5icsz1
hjoNG3pMSmv/RvshwwIDAQABo3EwbzAOBgNVHQ8BAf8EBAMCBaAwHQYDVR0lBBYw
FAYIKwYBBQUHAwEGCCsGAQUFBwMCMB0GA1UdDgQWBBTtlOd6/rjDdrTzgKRMUsHG
DhBaLjAfBgNVHSMEGDAWgBTNJds0fKIHD6PRxbnGVT4V1oCPmjANBgkqhkiG9w0B
AQsFAAOCAQEAWvBsuz3e+hTemlpY7dFNXpxy+8y+O6uRw9nK9N5BCAN7ZINg8Q8g
GzxATI/aYa/rQ70/JAmhQB5VOcpR/8QiWbAdKYQ+E5hjmQ3emNH5BU2ViIq5p7As
+1CiDOwruY6wECCgz0n/gxTnDI108DE5db+4f3Al72+Zowof03teuPj7Bj1Fzs7A
YFFPfX5zYpbKMa33hHUVqOEB98nwtSxVE6lCUhzPcjovUCELEuaGjj/5Ood2M7FI
Z+xKJmHQJz7NmaCOC/Ed9zFA1N4PHnDUr8k+Y1gWbc9ozg4cVooYxjLeOLOEs+Wl
kKOvpw8vT1FsgY21clkexrblvrVZ6ekVlQ==
-----END CERTIFICATE-----